; Function Attrs: nounwind uwtable
define range(i32 0, 2) i32 @ossl_quic_hdr_protector_encrypt_fields(ptr noundef readonly captures(none) %0, ptr noundef %1, i64 noundef %2, ptr noundef captures(none) %3, ptr noundef captures(none) %4) local_unnamed_addr #0 {
  %6 = alloca [5 x i8], align 1
  call void @llvm.lifetime.start.p0(i64 5, ptr nonnull %6) #10
  %7 = call fastcc i32 @hdr_generate_mask(ptr noundef %0, ptr noundef %1, i64 noundef %2, ptr noundef %6)
  %.not = icmp eq i32 %7, 0
  br i1 %.not, label %25, label %8

8:                                                ; preds = %5
  %9 = load i8, ptr %3, align 1, !tbaa !23
  %10 = and i8 %9, 3
  %11 = add nuw nsw i8 %10, 1
  %wide.trip.count = zext nneg i8 %11 to i64
  br label %12

12:                                               ; preds = %8, %12
  %indvars.iv = phi i64 [ 0, %8 ], [ %13, %12 ]
  %13 = add nuw nsw i64 %indvars.iv, 1
  %14 = getelementptr inbounds nuw [5 x i8], ptr %6, i64 0, i64 %13
  %15 = load i8, ptr %14, align 1, !tbaa !23
  %16 = getelementptr inbounds nuw i8, ptr %4, i64 %indvars.iv
  %17 = load i8, ptr %16, align 1, !tbaa !23
  %18 = xor i8 %17, %15
  store i8 %18, ptr %16, align 1, !tbaa !23
  %exitcond = icmp eq i64 %13, %wide.trip.count
  br i1 %exitcond, label %19, label %12, !llvm.loop !27

19:                                               ; preds = %12
  %20 = load i8, ptr %6, align 1, !tbaa !23
  %21 = load i8, ptr %3, align 1, !tbaa !23
  %.not15 = icmp sgt i8 %21, -1
  %22 = select i1 %.not15, i8 31, i8 15
  %23 = and i8 %22, %20
  %24 = xor i8 %23, %21
  store i8 %24, ptr %3, align 1, !tbaa !23
  br label %25

25:                                               ; preds = %5, %19
  %.012 = phi i32 [ 1, %19 ], [ 0, %5 ]
  call void @llvm.lifetime.end.p0(i64 5, ptr nonnull %6) #10
  ret i32 %.012
}